; Function Attrs: mustprogress nounwind uwtable
define dso_local void @_ZN22btBvhTriangleMeshShapeD0Ev(ptr noundef nonnull align 8 dereferenceable(109) %this) unnamed_addr #3 align 2 personality ptr @__gxx_personality_v0 {
entry:
  store ptr getelementptr inbounds ({ [23 x ptr] }, ptr @_ZTV22btBvhTriangleMeshShape, i64 0, i32 0, i64 2), ptr %this, align 8
  %m_ownsBvh.i = getelementptr inbounds i8, ptr %this, i64 97
  %0 = load i8, ptr %m_ownsBvh.i, align 1
  %1 = and i8 %0, 1
  %tobool.not.i = icmp eq i8 %1, 0
  br i1 %tobool.not.i, label %_ZN22btBvhTriangleMeshShapeD2Ev.exit, label %if.then.i

if.then.i:                                        ; preds = %entry
  %m_bvh.i = getelementptr inbounds i8, ptr %this, i64 80
  %2 = load ptr, ptr %m_bvh.i, align 8
  %vtable.i = load ptr, ptr %2, align 8
  %3 = load ptr, ptr %vtable.i, align 8
  tail call void %3(ptr noundef nonnull align 8 dereferenceable(244) %2) #10
  %4 = load ptr, ptr %m_bvh.i, align 8
  invoke void @_Z21btAlignedFreeInternalPv(ptr noundef %4)
          to label %_ZN22btBvhTriangleMeshShapeD2Ev.exit unwind label %terminate.lpad.i

terminate.lpad.i:                                 ; preds = %if.then.i
  %5 = landingpad { ptr, i32 }
          catch ptr null
  %6 = extractvalue { ptr, i32 } %5, 0
  tail call void @__clang_call_terminate(ptr %6) #11
  unreachable

_ZN22btBvhTriangleMeshShapeD2Ev.exit:             ; preds = %entry, %if.then.i
  tail call void @_ZN19btTriangleMeshShapeD2Ev(ptr noundef nonnull align 8 dereferenceable(80) %this) #10
  invoke void @_Z21btAlignedFreeInternalPv(ptr noundef nonnull %this)
          to label %_ZN22btBvhTriangleMeshShapedlEPv.exit unwind label %terminate.lpad.i1

terminate.lpad.i1:                                ; preds = %_ZN22btBvhTriangleMeshShapeD2Ev.exit
  %7 = landingpad { ptr, i32 }
          catch ptr null
  %8 = extractvalue { ptr, i32 } %7, 0
  tail call void @__clang_call_terminate(ptr %8) #11
  unreachable

_ZN22btBvhTriangleMeshShapedlEPv.exit:            ; preds = %_ZN22btBvhTriangleMeshShapeD2Ev.exit
  ret void
}